target datalayout = "e-m:e-p270:32:32-p271:32:32-p272:64:64-i64:64-i128:128-f80:128-n8:16:32:64-S128"
target triple = "x86_64-pc-linux-gnu"

@.str.803 = private unnamed_addr constant [12 x i8] c"%05d %07d *\00", align 1
@.str.804 = private unnamed_addr constant [13 x i8] c"%05d %07d %d\00", align 1

; Function Attrs: null_pointer_is_valid sspstrong uwtable
define internal void @fmt_dect_nwk_ipei(ptr noundef %0, i64 noundef %1) #0 {
  %3 = alloca ptr, align 8
  %4 = alloca i64, align 8
  %5 = alloca i16, align 2
  %6 = alloca i16, align 2
  %7 = alloca i32, align 4
  %8 = alloca i64, align 8
  %9 = alloca i64, align 8
  %10 = alloca i8, align 1
  store ptr %0, ptr %3, align 8
  store i64 %1, ptr %4, align 8
  call void @llvm.lifetime.start.p0(i64 2, ptr %5) #5
  call void @llvm.lifetime.start.p0(i64 2, ptr %6) #5
  call void @llvm.lifetime.start.p0(i64 4, ptr %7) #5
  call void @llvm.lifetime.start.p0(i64 8, ptr %8) #5
  call void @llvm.lifetime.start.p0(i64 8, ptr %9) #5
  %11 = load i64, ptr %4, align 8
  %12 = and i64 %11, 68718428160
  %13 = lshr i64 %12, 20
  %14 = and i64 %13, 65535
  %15 = trunc i64 %14 to i16
  store i16 %15, ptr %5, align 2
  %16 = load i64, ptr %4, align 8
  %17 = and i64 %16, 1048575
  %18 = trunc i64 %17 to i32
  store i32 %18, ptr %7, align 4
  store i64 100000000000, ptr %8, align 8
  %19 = load i16, ptr %5, align 2
  %20 = zext i16 %19 to i64
  %21 = mul i64 %20, 10000000
  %22 = load i32, ptr %7, align 4
  %23 = zext i32 %22 to i64
  %24 = add i64 %21, %23
  store i64 %24, ptr %9, align 8
  store i16 0, ptr %6, align 2
  call void @llvm.lifetime.start.p0(i64 1, ptr %10) #5
  store i8 1, ptr %10, align 1
  br label %25

25:                                               ; preds = %48, %2
  %26 = load i8, ptr %10, align 1
  %27 = zext i8 %26 to i32
  %28 = icmp sle i32 %27, 12
  br i1 %28, label %30, label %29

29:                                               ; preds = %25
  call void @llvm.lifetime.end.p0(i64 1, ptr %10) #5
  br label %51

30:                                               ; preds = %25
  %31 = load i64, ptr %9, align 8
  %32 = load i64, ptr %8, align 8
  %33 = udiv i64 %31, %32
  %34 = load i8, ptr %10, align 1
  %35 = zext i8 %34 to i64
  %36 = mul i64 %33, %35
  %37 = trunc i64 %36 to i16
  %38 = zext i16 %37 to i32
  %39 = load i16, ptr %6, align 2
  %40 = zext i16 %39 to i32
  %41 = add i32 %40, %38
  %42 = trunc i32 %41 to i16
  store i16 %42, ptr %6, align 2
  %43 = load i64, ptr %9, align 8
  %44 = load i64, ptr %8, align 8
  %45 = urem i64 %43, %44
  store i64 %45, ptr %9, align 8
  %46 = load i64, ptr %8, align 8
  %47 = udiv i64 %46, 10
  store i64 %47, ptr %8, align 8
  br label %48

48:                                               ; preds = %30
  %49 = load i8, ptr %10, align 1
  %50 = add i8 %49, 1
  store i8 %50, ptr %10, align 1
  br label %25, !llvm.loop !6

51:                                               ; preds = %29
  %52 = load i16, ptr %6, align 2
  %53 = zext i16 %52 to i32
  %54 = srem i32 %53, 11
  %55 = trunc i32 %54 to i16
  store i16 %55, ptr %6, align 2
  %56 = load i16, ptr %6, align 2
  %57 = zext i16 %56 to i32
  %58 = icmp eq i32 %57, 10
  br i1 %58, label %59, label %67

59:                                               ; preds = %51
  %60 = load ptr, ptr %3, align 8
  %61 = load ptr, ptr %3, align 8
  %62 = call i64 @llvm.objectsize.i64.p0(ptr %61, i1 false, i1 true, i1 true)
  %63 = load i16, ptr %5, align 2
  %64 = zext i16 %63 to i32
  %65 = load i32, ptr %7, align 4
  %66 = call i32 (ptr, i64, i32, i64, ptr, ...) @__snprintf_chk(ptr noundef %60, i64 noundef 16, i32 noundef 2, i64 noundef %62, ptr noundef @.str.803, i32 noundef %64, i32 noundef %65)
  br label %77

67:                                               ; preds = %51
  %68 = load ptr, ptr %3, align 8
  %69 = load ptr, ptr %3, align 8
  %70 = call i64 @llvm.objectsize.i64.p0(ptr %69, i1 false, i1 true, i1 true)
  %71 = load i16, ptr %5, align 2
  %72 = zext i16 %71 to i32
  %73 = load i32, ptr %7, align 4
  %74 = load i16, ptr %6, align 2
  %75 = zext i16 %74 to i32
  %76 = call i32 (ptr, i64, i32, i64, ptr, ...) @__snprintf_chk(ptr noundef %68, i64 noundef 16, i32 noundef 2, i64 noundef %70, ptr noundef @.str.804, i32 noundef %72, i32 noundef %73, i32 noundef %75)
  br label %77

77:                                               ; preds = %67, %59
  call void @llvm.lifetime.end.p0(i64 8, ptr %9) #5
  call void @llvm.lifetime.end.p0(i64 8, ptr %8) #5
  call void @llvm.lifetime.end.p0(i64 4, ptr %7) #5
  call void @llvm.lifetime.end.p0(i64 2, ptr %6) #5
  call void @llvm.lifetime.end.p0(i64 2, ptr %5) #5
  ret void
}